Certificate:
    Data:
        Version: 1 (0x0)
        Serial Number:
            71:66:ba:ac:98:63:0f:61:6b:94:cc:91:b8:bc:c1:e0:ec:51:77:5c
        Signature Algorithm: NULL
        Issuer: CN = certificate-authority
        Validity
            Not Before: Jan  5 23:33:57 2021 GMT
            Not After : Jan  5 23:33:57 2022 GMT
        Subject: CN = certificate-authority
        Subject Public Key Info:
            Public Key Algorithm: rsaEncryption
                RSA Public-Key: (2048 bit)
                Modulus:
                    00:d3:62:4b:44:49:bf:34:a5:b3:7f:a4:78:8e:b8:
                    5d:a4:e7:a8:82:16:26:fe:67:49:aa:33:22:b6:92:
                    1b:ba:e9:7f:3e:c4:a6:f0:d2:24:62:04:be:ba:bc:
                    21:b3:ce:2f:c8:c4:69:9b:01:c7:d0:5e:31:bc:a0:
                    64:fd:a0:c2:bb:89:b9:c0:a7:b4:a6:de:b8:dc:88:
                    27:24:5f:8c:7a:a5:9d:3f:45:ab:59:af:54:69:ad:
                    be:29:0e:55:12:3e:7b:53:f4:e1:2d:bc:51:65:f8:
                    05:a0:e2:18:f2:10:be:8f:a4:c4:f5:fa:be:48:14:
                    ca:4d:d5:b9:82:6f:f0:3d:f2:1a:6c:74:af:9c:8d:
                    30:0f:74:de:e3:a1:f3:49:2d:53:7c:99:b2:54:ad:
                    27:78:4b:b9:97:8d:9f:ff:bc:dc:3c:59:08:d1:67:
                    de:e6:f1:16:fc:57:56:3e:bf:48:d9:82:24:48:24:
                    5f:99:f2:42:a6:64:a3:f9:89:80:ea:41:6d:74:b6:
                    ee:53:36:c5:ed:0d:8e:22:ec:66:48:a5:cc:ab:7e:
                    0e:a3:32:33:75:90:cc:8e:1f:61:7e:64:e9:d3:94:
                    4c:62:79:30:01:0f:82:c8:c1:e9:37:82:c3:08:a8:
                    0f:83:3b:23:9f:b8:a5:f3:96:69:cc:5e:32:a3:fc:
                    6b:87
                Exponent: 65537 (0x10001)
    Signature Algorithm: NULL
-----BEGIN CERTIFICATE-----
MIIDITCCAgmgAwIBAgIUcWa6rJhjD2FrlMyRuLzB4OxRd1wwDQYJKoZIhvcNAQEL
BQAwIDEeMBwGA1UEAwwVY2VydGlmaWNhdGUtYXV0aG9yaXR5MB4XDTIxMDEwNTIz
MzM1N1oXDTIyMDEwNTIzMzM1N1owIDEeMBwGA1UEAwwVY2VydGlmaWNhdGUtYXV0
aG9yaXR5MIIBIjANBgkqhkiG9w0BAQEFAAOCAQ8AMIIBCgKCAQEA02JLREm/NKWz
f6R4jrhdpOeoghYm/mdJqjMitpIbuul/PsSm8NIkYgS+urwhs84vyMRpmwHH0F4x
vKBk/aDCu4m5wKe0pt643IgnJF+MeqWdP0WrWa9Uaa2+KQ5VEj57U/ThLbxRZfgF
oOIY8hC+j6TE9fq+SBTKTdW5gm/wPfIabHSvnI0wD3Te46HzSS1TfJmyVK0neEu5
l42f/7zcPFkI0Wfe5vEW/FdWPr9I2YIkSCRfmfJCpmSj+YmA6kFtdLbuUzbF7Q2O
IuxmSKXMq34OozIzdZDMjh9hfmTp05RMYnkwAQ+CyMHpN4LDCKgPgzsjn7il85Zp
zF4yo/xrhwIDAQABo1MwUTAdBgNVHQ4EFgQUSOn1U11dJgQajdRViPmLgp4CK7Uw
HwYDVR0jBBgwFoAUSOn1U11dJgQajdRViPmLgp4CK7UwDwYDVR0TAQH/BAUwAwEB
/zANBgkqhkiG9w0BAQsFAAOCAQEAm0ArqzBspZMgPF6G8hCQBsfh7sjAffzlKf0j
r0Vbd/GrOxMRYZFQqxwNp/oRYsKICFayYpsjr83aCEX8BqIlW3dQjKC18Dnun7s0
OcgMTcEa9ymoBdfff1e/F2NkgEHYERMVl01cZyy1S+7Wo4KpzsZ0utq8RQPMzhmp
oVbeJ8/QkAAiSMgEFZeuR4t+LRVYtACgKb4GN9m+1tJUxNX7CUumaxjzmfHwsf8Y
0S/46/cAE84P4cY0LY5rOJY9z/RlY6RtTNncScFOQVT75rvWqKVDSlJPIqPvREJv
1swwBnyQEA6fafokdsLC9VhKYY7+o/HXSVbjKj/jH3Ms38i86A==
-----END CERTIFICATE-----
