Certificate:
    Data:
        Version: 1 (0x0)
        Serial Number:
            63:a0:64:f7:d9:69:fc:55:83:87:2d:fb:af:f9:21:d1:0a:27:6c:67
        Signature Algorithm: NULL
        Issuer: CN = certificate-authority
        Validity
            Not Before: Dec 28 16:03:49 2020 GMT
            Not After : Dec 28 16:03:49 2021 GMT
        Subject: CN = certificate-authority
        Subject Public Key Info:
            Public Key Algorithm: rsaEncryption
                RSA Public-Key: (2048 bit)
                Modulus:
                    00:c5:32:3a:26:26:87:45:89:ca:e6:14:be:a2:7e:
                    c2:dd:ad:0f:77:ec:76:89:9e:31:70:9f:41:d2:08:
                    0a:e2:6d:f7:32:99:f1:42:b6:4f:af:8e:92:57:81:
                    40:1a:39:ab:e8:cf:4f:d0:31:6b:2e:3b:cd:ae:6b:
                    a1:06:3f:26:c2:bb:c4:3d:27:89:dc:cb:55:99:c3:
                    bb:ec:9b:a0:83:78:ed:72:8b:89:11:80:8b:fe:b8:
                    8c:da:c4:09:8b:c5:5d:72:d1:0a:f0:a1:90:7c:a2:
                    6d:3c:c7:70:04:38:90:d3:ff:3b:b3:23:22:97:a8:
                    76:07:4a:50:14:a9:0a:c9:a9:b0:ee:f2:bf:94:bb:
                    02:d2:d9:46:c2:91:29:50:65:28:0b:e7:84:ea:9e:
                    68:ef:bd:55:17:01:e9:c3:b6:9c:ca:ae:82:7f:01:
                    6e:92:d4:e9:e5:c7:51:a3:c6:cd:60:4c:17:a0:93:
                    6a:9f:5d:bd:15:85:2a:2a:c4:c3:3d:53:47:e5:77:
                    7e:38:58:90:54:aa:74:2c:46:d2:c3:c5:80:93:70:
                    64:35:e1:61:34:67:ed:f1:d0:d0:d2:be:57:27:b5:
                    f3:be:7a:27:b5:18:23:ec:74:0e:fe:06:7c:43:d6:
                    96:91:cc:74:70:af:6b:17:23:55:4c:29:85:22:e9:
                    f4:9f
                Exponent: 65537 (0x10001)
    Signature Algorithm: NULL
-----BEGIN CERTIFICATE-----
MIIDITCCAgmgAwIBAgIUY6Bk99lp/FWDhy37r/kh0QonbGcwDQYJKoZIhvcNAQEL
BQAwIDEeMBwGA1UEAwwVY2VydGlmaWNhdGUtYXV0aG9yaXR5MB4XDTIwMTIyODE2
MDM0OVoXDTIxMTIyODE2MDM0OVowIDEeMBwGA1UEAwwVY2VydGlmaWNhdGUtYXV0
aG9yaXR5MIIBIjANBgkqhkiG9w0BAQEFAAOCAQ8AMIIBCgKCAQEAxTI6JiaHRYnK
5hS+on7C3a0Pd+x2iZ4xcJ9B0ggK4m33MpnxQrZPr46SV4FAGjmr6M9P0DFrLjvN
rmuhBj8mwrvEPSeJ3MtVmcO77Jugg3jtcouJEYCL/riM2sQJi8VdctEK8KGQfKJt
PMdwBDiQ0/87syMil6h2B0pQFKkKyamw7vK/lLsC0tlGwpEpUGUoC+eE6p5o771V
FwHpw7acyq6CfwFuktTp5cdRo8bNYEwXoJNqn129FYUqKsTDPVNH5Xd+OFiQVKp0
LEbSw8WAk3BkNeFhNGft8dDQ0r5XJ7XzvnontRgj7HQO/gZ8Q9aWkcx0cK9rFyNV
TCmFIun0nwIDAQABo1MwUTAdBgNVHQ4EFgQU/4RiH4v4ayKPDMKeyloKJ1WEx9Aw
HwYDVR0jBBgwFoAU/4RiH4v4ayKPDMKeyloKJ1WEx9AwDwYDVR0TAQH/BAUwAwEB
/zANBgkqhkiG9w0BAQsFAAOCAQEADUJSLhBZOkUxrFDCi1Nsz87eT+uCOL+o0avi
wlhHNYxCVMYtHnwh6dDVNuUaO09h7HgeXFzJiQFmPBjKUfaxPB9gFqmYm86+Zfbd
V6D4IanmQB6qbEnMUj2tu0vaXzsQYk7x1XendoTna5aoIFEH6/Fu5LNN56H2Zypd
ckoOdddbudBy9vPQjK1tH3FthDVVSGamdi5VbF3kJ8Q2aU7Nj+zvH9Y1SfSErSHP
DBYgWm0SurTuRK0ebXFNS5qR1/8TzTG3EnROD3cpGzZTWxObXzjIEfLUVBBZTYf9
BmCSgWrrH69sPY8IiraaJsopf4dUPBZ4nygSNlfi2Oe+GY/IPw==
-----END CERTIFICATE-----
