Certificate:
    Data:
        Version: 1 (0x0)
        Serial Number:
            3e:96:b3:d7:96:96:68:4f:04:da:53:bd:27:2a:6f:07:94:dd:49:b2
        Signature Algorithm: NULL
        Issuer: CN = pg-client
        Validity
            Not Before: Nov 25 18:58:10 2020 GMT
            Not After : Dec 25 18:58:10 2020 GMT
        Subject: CN = pg-client
        Subject Public Key Info:
            Public Key Algorithm: rsaEncryption
                RSA Public-Key: (2048 bit)
                Modulus:
                    00:d2:61:dd:44:95:56:7d:4c:a6:6a:76:d0:e2:6f:
                    f6:ec:d8:a6:82:ae:1b:50:0f:44:a9:b5:0e:63:1f:
                    dc:1b:04:b2:16:61:9b:ec:36:1b:7f:2a:f7:2d:27:
                    67:61:2c:09:29:78:83:4e:3c:57:2b:e8:4e:53:1a:
                    7e:8e:7a:de:dd:0c:2e:6b:85:b2:9b:ba:cc:78:38:
                    4f:9c:43:04:51:6a:0a:4e:06:0a:79:75:33:5e:9d:
                    41:29:e2:d0:d8:81:23:40:73:50:4b:d4:d6:34:86:
                    94:eb:b8:a1:1b:6f:34:06:5a:ce:1e:92:84:ff:f2:
                    9e:9c:ad:fd:fb:cc:9b:69:7d:30:ee:90:8d:9e:17:
                    24:da:42:a5:44:9f:1d:d1:3a:42:59:13:21:ff:88:
                    36:16:6c:79:6e:26:b8:ea:6b:2e:df:bf:80:0b:4e:
                    30:7d:93:59:6d:1c:ad:29:f3:d6:05:31:aa:25:ba:
                    59:e3:b3:69:7b:d6:27:9e:8b:fe:22:2f:d6:46:52:
                    f5:d5:26:60:ec:84:55:63:00:53:21:43:40:c3:c9:
                    4a:79:5c:41:01:b3:bf:08:bd:5d:30:9c:a6:86:65:
                    9b:90:54:a4:73:78:5b:20:26:46:8f:7d:f2:04:a8:
                    a0:8f:ac:4e:e8:ca:03:8b:2d:72:0a:d0:e8:08:2b:
                    25:e9
                Exponent: 65537 (0x10001)
    Signature Algorithm: NULL
-----BEGIN CERTIFICATE-----
MIICuzCCAaMCFAzP0A+BZS240aR/AJRBqbSYp5lSMA0GCSqGSIb3DQEBCwUAMCAx
HjAcBgNVBAMMFWNlcnRpZmljYXRlLWF1dGhvcml0eTAeFw0yMDExMjUxODU4MTBa
Fw0yMDEyMjUxODU4MTBaMBQxEjAQBgNVBAMMCXBnLWNsaWVudDCCASIwDQYJKoZI
hvcNAQEBBQADggEPADCCAQoCggEBANJh3USVVn1Mpmp20OJv9uzYpoKuG1APRKm1
DmMf3BsEshZhm+w2G38q9y0nZ2EsCSl4g048VyvoTlMafo563t0MLmuFspu6zHg4
T5xDBFFqCk4GCnl1M16dQSni0NiBI0BzUEvU1jSGlOu4oRtvNAZazh6ShP/ynpyt
/fvMm2l9MO6QjZ4XJNpCpUSfHdE6QlkTIf+INhZseW4muOprLt+/gAtOMH2TWW0c
rSnz1gUxqiW6WeOzaXvWJ56L/iIv1kZS9dUmYOyEVWMAUyFDQMPJSnlcQQGzvwi9
XTCcpoZlm5BUpHN4WyAmRo998gSooI+sTujKA4stcgrQ6AgrJekCAwEAATANBgkq
hkiG9w0BAQsFAAOCAQEAPhXTseGce73eHsTy0WUfmCQdpo9imhMStQMIacm6dr/A
+ieNGs7nJabOIveViBAcL1rv7VjBHHl5dBmqFiFIYmxU9tdePYcpk+QEW8BQWo/F
+xum4xpjwmUC/tGvBTtvbyYgZJ8/t9hwppXcqjqs7mFNO8xkyyMeJvROEy0vl40g
YtMcxAsuBMaPPskKUQD+rIaPF0PZvpuScgyUzIZf5y0C86OlQnFZCfsPZTg4P4du
IxyuAeeEApVYhtkP2oyMumFNzss+T1qLqBdGMPPtgRWCKxY+u3p5Kh+yy3NaCrVB
SCu80aczNonjmbSq6fqDo+9wMlwpo0e5I7Kr3hXOMQ==
-----END CERTIFICATE-----
