Certificate:
    Data:
        Version: 1 (0x0)
        Serial Number:
            6b:15:a0:96:e3:41:83:37:f6:63:1a:07:1d:be:28:91:c3:a0:29:2e
        Signature Algorithm: NULL
        Issuer: CN = pg-client
        Validity
            Not Before: Dec 28 16:04:05 2020 GMT
            Not After : Dec 28 16:04:05 2021 GMT
        Subject: CN = pg-client
        Subject Public Key Info:
            Public Key Algorithm: rsaEncryption
                RSA Public-Key: (2048 bit)
                Modulus:
                    00:a9:2a:d9:ed:09:5f:53:ed:31:ba:a5:45:ca:74:
                    82:40:9d:f3:db:d5:c1:5b:24:77:85:61:bf:89:8c:
                    9a:59:9c:9c:35:a2:c8:eb:4c:a0:78:d0:0c:22:48:
                    45:db:ab:16:7c:36:ef:ec:98:83:46:93:ab:1a:4e:
                    ec:a7:fa:0e:88:fd:c3:8a:69:a5:79:1f:4b:9c:59:
                    39:d4:45:9f:65:a3:a1:73:f4:96:08:49:d2:64:df:
                    12:cd:5a:83:99:0a:45:c8:5a:a4:24:59:42:c9:7b:
                    5b:db:fb:19:93:4b:7e:ad:59:03:84:98:d7:84:96:
                    39:65:af:89:2d:37:03:17:fe:08:55:39:ae:cc:50:
                    f9:2f:20:f9:45:a3:22:4d:60:7e:bf:fc:23:90:b9:
                    02:13:72:01:5b:10:0e:5f:0c:e4:4c:88:85:f8:bd:
                    ca:21:54:3b:4f:a7:e4:a1:b8:67:db:92:6f:4d:bb:
                    17:43:a9:5f:b7:2d:b8:5b:e6:a7:29:2c:a9:4e:bd:
                    74:5d:7c:ce:75:60:f7:09:e5:98:b1:37:09:3d:cb:
                    16:72:68:5e:44:01:15:0a:b5:92:4a:71:21:8e:3f:
                    0e:28:4e:12:9a:9d:66:ec:f6:76:31:88:15:bb:80:
                    13:a8:e1:7f:1e:3c:3f:5f:e7:db:28:8b:f2:85:1a:
                    e6:d7
                Exponent: 65537 (0x10001)
    Signature Algorithm: NULL
-----BEGIN CERTIFICATE-----
MIICuzCCAaMCFCLHKabzOz/2VDc7TE1PHiRH77zaMA0GCSqGSIb3DQEBCwUAMCAx
HjAcBgNVBAMMFWNlcnRpZmljYXRlLWF1dGhvcml0eTAeFw0yMDEyMjgxNjA0MDVa
Fw0yMTEyMjgxNjA0MDVaMBQxEjAQBgNVBAMMCXBnLWNsaWVudDCCASIwDQYJKoZI
hvcNAQEBBQADggEPADCCAQoCggEBAKkq2e0JX1PtMbqlRcp0gkCd89vVwVskd4Vh
v4mMmlmcnDWiyOtMoHjQDCJIRdurFnw27+yYg0aTqxpO7Kf6Doj9w4pppXkfS5xZ
OdRFn2WjoXP0lghJ0mTfEs1ag5kKRchapCRZQsl7W9v7GZNLfq1ZA4SY14SWOWWv
iS03Axf+CFU5rsxQ+S8g+UWjIk1gfr/8I5C5AhNyAVsQDl8M5EyIhfi9yiFUO0+n
5KG4Z9uSb027F0OpX7ctuFvmpyksqU69dF18znVg9wnlmLE3CT3LFnJoXkQBFQq1
kkpxIY4/DihOEpqdZuz2djGIFbuAE6jhfx48P1/n2yiL8oUa5tcCAwEAATANBgkq
hkiG9w0BAQsFAAOCAQEAboxQus/XKwpAe3U9zNIuAs8NHufpzHSs70UkqSb4afQI
AfZR2tA1EL1vi/7wExB7Vk5Di6pULEEwAORh63wBVXsLigDTRgy4a8tkBTRTrRce
5tK4FoDqA+d6w1yjfWIl5Th91UIT16UFEQcxFuNSOOXPUl0TBuSagss3YhAqTH7O
ZaSnSJKfKFZi+XjanwSimdYhu/xHBzFv4FSatiEMMzJbncp5yQDBheRV5luBVO1/
mXwfFT/XvkCiAj4XgsqXLbsSN6ghn3Q17QjQn4RY+g+/uEeTNdDOJOdfDNjnAhhs
x260b6wyIGQvU3jN6daA8ySs9AO58OgrZjBDy80XNQ==
-----END CERTIFICATE-----
