Certificate:
    Data:
        Version: 1 (0x0)
        Serial Number:
            7d:ed:58:6a:db:f6:46:5a:5d:2d:58:d4:7f:95:ea:c5:11:ef:fd:d4
        Signature Algorithm: NULL
        Issuer: CN = pg-client
        Validity
            Not Before: Jan  5 23:34:10 2021 GMT
            Not After : Jan  5 23:34:10 2022 GMT
        Subject: CN = pg-client
        Subject Public Key Info:
            Public Key Algorithm: rsaEncryption
                RSA Public-Key: (2048 bit)
                Modulus:
                    00:bc:c8:54:6e:8a:e5:47:e0:a9:8b:fe:74:fb:1f:
                    73:49:a1:67:d3:46:b2:8d:40:b7:13:e7:0d:e1:32:
                    f8:52:10:21:61:d0:84:5d:80:9d:8f:59:2e:6a:50:
                    20:ff:f9:a5:ff:92:1a:7b:34:cc:79:f9:8a:52:8a:
                    6c:9c:28:0d:be:43:92:2d:fa:ed:c1:d2:1d:55:21:
                    73:1f:40:01:fa:7c:a8:68:0c:77:9c:a3:e1:66:b3:
                    6a:69:96:84:55:16:d5:8b:03:e6:34:ca:68:44:bf:
                    53:e9:44:a0:93:81:aa:15:b6:66:02:ca:10:6a:ad:
                    0f:44:23:17:20:d9:28:69:3e:fd:a5:18:8d:c8:45:
                    a0:65:f1:19:b3:23:3f:8d:11:48:6c:c0:24:aa:85:
                    a4:e9:b8:ab:00:b8:fb:9d:99:24:56:a7:1a:98:39:
                    e1:66:da:d6:ef:9d:74:eb:6c:9d:cc:73:58:b0:e9:
                    5d:6c:5f:d7:c2:64:6b:48:72:3d:2b:3d:b1:5d:61:
                    a0:52:0e:23:6f:4c:f6:b7:e8:f1:e8:c5:dd:02:f9:
                    88:a8:05:1f:67:79:4a:c3:f6:ab:d7:34:56:2f:f0:
                    b5:b3:ac:05:63:02:e5:97:de:6b:4c:54:49:fa:62:
                    2c:ad:e7:5a:99:35:7c:39:ea:13:3a:68:ad:0f:31:
                    05:71
                Exponent: 65537 (0x10001)
    Signature Algorithm: NULL
-----BEGIN CERTIFICATE-----
MIICuzCCAaMCFCf51RT1F3KgT3i7Fuh3FnzfWe2/MA0GCSqGSIb3DQEBCwUAMCAx
HjAcBgNVBAMMFWNlcnRpZmljYXRlLWF1dGhvcml0eTAeFw0yMTAxMDUyMzM0MTBa
Fw0yMjAxMDUyMzM0MTBaMBQxEjAQBgNVBAMMCXBnLWNsaWVudDCCASIwDQYJKoZI
hvcNAQEBBQADggEPADCCAQoCggEBALzIVG6K5UfgqYv+dPsfc0mhZ9NGso1AtxPn
DeEy+FIQIWHQhF2AnY9ZLmpQIP/5pf+SGns0zHn5ilKKbJwoDb5Dki367cHSHVUh
cx9AAfp8qGgMd5yj4WazammWhFUW1YsD5jTKaES/U+lEoJOBqhW2ZgLKEGqtD0Qj
FyDZKGk+/aUYjchFoGXxGbMjP40RSGzAJKqFpOm4qwC4+52ZJFanGpg54Wba1u+d
dOtsncxzWLDpXWxf18Jka0hyPSs9sV1hoFIOI29M9rfo8ejF3QL5iKgFH2d5SsP2
q9c0Vi/wtbOsBWMC5Zfea0xUSfpiLK3nWpk1fDnqEzporQ8xBXECAwEAATANBgkq
hkiG9w0BAQsFAAOCAQEAUOj37UwabbVzbLrl0BwN7DXTLxFah73UKWZzIXsyj7rp
YVP3VCchw9Medc8oUKcXPWiwT40QNVQ/ClE4RXa0/bjklKg5d006yFqvWvii0lwD
lrc0HEJcFJA8OBiNgQ9KehbkMObLOY5JYyEU4TJ0s+ZSdaxkFqLaKAAgcoGNq7rJ
xkYMHRPM2H6+p6iHKYUmIWGQ+SJlSOaierHV6S3+wSNN+bX06PxbMMN0+erLydJA
e+5RYcRitknll0MsOrgjlgcmvwBeazV3ARLjVpfxOMZolYKzmFHh6H9DqHHJT8EI
kRj190X2UavT5e9hwvqjb6ST6uJGvzPvyFUyDSxeNQ==
-----END CERTIFICATE-----
