Certificate:
    Data:
        Version: 1 (0x0)
        Serial Number:
            10:47:54:fa:65:b6:69:00:42:2b:3b:1d:7f:7a:ca:16:8c:ae:59:5c
        Signature Algorithm: NULL
        Issuer: CN = certificate-authority
        Validity
            Not Before: Nov 30 03:07:56 2020 GMT
            Not After : Dec 30 03:07:56 2020 GMT
        Subject: CN = certificate-authority
        Subject Public Key Info:
            Public Key Algorithm: rsaEncryption
                RSA Public-Key: (2048 bit)
                Modulus:
                    00:d4:f7:4d:0d:23:bb:b9:08:e7:3e:39:b8:a7:f2:
                    73:cf:25:a0:aa:79:eb:bc:33:15:0f:33:a5:fc:98:
                    3b:aa:cf:59:38:76:57:0a:14:4f:3b:62:8d:a2:a2:
                    62:35:d2:d3:06:52:b1:be:b6:2d:b9:59:ba:93:79:
                    f6:31:68:d8:bf:0d:e7:c8:c4:8e:04:ff:28:e4:64:
                    69:9e:dc:76:f6:df:8e:13:f5:b9:68:58:a6:83:11:
                    d0:a1:45:32:f7:77:3e:ef:92:3e:2f:4f:b6:cf:8c:
                    57:a7:e0:bc:40:78:4f:4e:40:6d:86:fd:31:43:e6:
                    4c:da:b0:d3:05:ca:75:bd:81:20:34:a7:53:96:93:
                    76:9e:4d:cf:a7:7b:75:d7:87:1b:01:88:d5:17:7a:
                    5a:bd:e8:c0:53:44:09:6d:3e:7a:b7:ff:1c:e2:d7:
                    6f:f1:18:eb:c6:49:6b:c3:ca:0a:e5:10:81:34:40:
                    fa:b5:3c:ae:59:a4:2c:cd:e1:a2:89:67:bb:cd:6a:
                    f1:35:f2:a2:08:b1:20:62:f3:cf:fa:88:f9:98:94:
                    97:f6:d2:13:1b:20:54:85:db:bc:33:c4:b1:ae:91:
                    b4:e2:bb:7e:d7:a6:bf:ca:dc:20:3c:46:cd:94:d1:
                    00:9d:17:eb:95:b3:00:98:00:d1:95:8c:cd:70:10:
                    d8:87
                Exponent: 65537 (0x10001)
    Signature Algorithm: NULL
-----BEGIN CERTIFICATE-----
MIIDITCCAgmgAwIBAgIUEEdU+mW2aQBCKzsdf3rKFoyuWVwwDQYJKoZIhvcNAQEL
BQAwIDEeMBwGA1UEAwwVY2VydGlmaWNhdGUtYXV0aG9yaXR5MB4XDTIwMTEzMDAz
MDc1NloXDTIwMTIzMDAzMDc1NlowIDEeMBwGA1UEAwwVY2VydGlmaWNhdGUtYXV0
aG9yaXR5MIIBIjANBgkqhkiG9w0BAQEFAAOCAQ8AMIIBCgKCAQEA1PdNDSO7uQjn
Pjm4p/JzzyWgqnnrvDMVDzOl/Jg7qs9ZOHZXChRPO2KNoqJiNdLTBlKxvrYtuVm6
k3n2MWjYvw3nyMSOBP8o5GRpntx29t+OE/W5aFimgxHQoUUy93c+75I+L0+2z4xX
p+C8QHhPTkBthv0xQ+ZM2rDTBcp1vYEgNKdTlpN2nk3Pp3t114cbAYjVF3pavejA
U0QJbT56t/8c4tdv8Rjrxklrw8oK5RCBNED6tTyuWaQszeGiiWe7zWrxNfKiCLEg
YvPP+oj5mJSX9tITGyBUhdu8M8SxrpG04rt+16a/ytwgPEbNlNEAnRfrlbMAmADR
lYzNcBDYhwIDAQABo1MwUTAdBgNVHQ4EFgQUpsIx3+1lQC7HQP+WGNfikSTmr5Uw
HwYDVR0jBBgwFoAUpsIx3+1lQC7HQP+WGNfikSTmr5UwDwYDVR0TAQH/BAUwAwEB
/zANBgkqhkiG9w0BAQsFAAOCAQEAEKidrImo7A3zGABb1FpzXxDoHxc0oowJFXcH
mjPBCegZxy+HNQxPEb8kYD1tzEL1I4IbgttUMh8+tjobQeK0NO10N7V59aBXA4ld
XocJDmIbjmUOTwwlySruS34Ru5CwlwUOMPa3g9D4zW1mNiSdA51xrsN9sVMfUg/r
c2nIGQcY52/zuZxBiXtYcfX9OVmL8IotqIgUI3g5NI4MK0LPJW5J9usCC2y8UbNR
P6CS74CczwgT+v/jPxJcQkHNxuj+BF4VUGqx0NcZaxhF+tGKUjJi9fXCHTwgYpBy
Pq4Xyi/cNkMojubFTUrTfU9lHSTPjsjOgXfV0Hdg6k7McXkYcA==
-----END CERTIFICATE-----
