Certificate:
    Data:
        Version: 1 (0x0)
        Serial Number:
            0e:40:06:29:e6:b9:55:b7:ea:b1:fc:75:7c:01:64:55:61:ee:e6:c1
        Signature Algorithm: NULL
        Issuer: CN = certificate-authority
        Validity
            Not Before: Jan  6 03:09:12 2021 GMT
            Not After : Jan  6 03:09:12 2022 GMT
        Subject: CN = certificate-authority
        Subject Public Key Info:
            Public Key Algorithm: rsaEncryption
                RSA Public-Key: (2048 bit)
                Modulus:
                    00:ab:51:6a:5e:7f:e8:75:a1:bb:b5:f4:7f:b0:fd:
                    7a:0c:73:bf:f1:ab:9f:92:d5:f8:fc:21:fb:dc:9a:
                    d7:d8:72:7d:14:12:e8:80:7a:4c:ff:b6:5d:0d:83:
                    53:33:6d:25:0b:6f:2c:14:e1:86:d1:e4:26:9d:5a:
                    c7:34:e6:5d:e1:22:7e:ab:00:03:e3:10:40:31:7c:
                    13:53:bf:81:bc:d1:5d:7c:24:8a:6d:06:3e:cd:76:
                    dd:bd:f8:1a:7c:3f:5b:60:c3:72:cb:32:2d:b0:c1:
                    16:db:9e:47:80:72:43:f6:32:27:3f:c4:c8:5b:cd:
                    6d:ef:f3:7c:3d:5f:16:72:62:7b:cd:1a:d3:0c:fc:
                    d5:cd:44:e2:af:91:58:c6:1a:b8:00:8a:cd:90:e2:
                    3b:1e:ec:13:ea:7c:5f:6b:cb:a2:2e:a8:27:de:ef:
                    8a:85:72:2e:fb:c7:0d:4a:7e:cf:4c:06:7c:e3:cf:
                    e7:ae:31:27:ea:a2:17:23:38:02:a7:33:03:45:19:
                    e6:d2:c8:41:cf:d6:3a:9e:b1:55:ed:90:1f:08:74:
                    c8:a6:0c:93:cc:b4:e6:6f:bb:14:66:e7:17:ec:d1:
                    07:b6:fe:03:f3:f2:56:ce:2d:b7:65:02:50:f6:f0:
                    a8:47:86:b7:12:0a:48:c9:56:37:ab:f7:39:4c:b8:
                    df:25
                Exponent: 65537 (0x10001)
    Signature Algorithm: NULL
-----BEGIN CERTIFICATE-----
MIIDITCCAgmgAwIBAgIUDkAGKea5Vbfqsfx1fAFkVWHu5sEwDQYJKoZIhvcNAQEL
BQAwIDEeMBwGA1UEAwwVY2VydGlmaWNhdGUtYXV0aG9yaXR5MB4XDTIxMDEwNjAz
MDkxMloXDTIyMDEwNjAzMDkxMlowIDEeMBwGA1UEAwwVY2VydGlmaWNhdGUtYXV0
aG9yaXR5MIIBIjANBgkqhkiG9w0BAQEFAAOCAQ8AMIIBCgKCAQEAq1FqXn/odaG7
tfR/sP16DHO/8aufktX4/CH73JrX2HJ9FBLogHpM/7ZdDYNTM20lC28sFOGG0eQm
nVrHNOZd4SJ+qwAD4xBAMXwTU7+BvNFdfCSKbQY+zXbdvfgafD9bYMNyyzItsMEW
255HgHJD9jInP8TIW81t7/N8PV8WcmJ7zRrTDPzVzUTir5FYxhq4AIrNkOI7HuwT
6nxfa8uiLqgn3u+KhXIu+8cNSn7PTAZ848/nrjEn6qIXIzgCpzMDRRnm0shBz9Y6
nrFV7ZAfCHTIpgyTzLTmb7sUZucX7NEHtv4D8/JWzi23ZQJQ9vCoR4a3EgpIyVY3
q/c5TLjfJQIDAQABo1MwUTAdBgNVHQ4EFgQUZKP8nlCssULPk5ZFVEpfxAsgEWEw
HwYDVR0jBBgwFoAUZKP8nlCssULPk5ZFVEpfxAsgEWEwDwYDVR0TAQH/BAUwAwEB
/zANBgkqhkiG9w0BAQsFAAOCAQEACwKRtwzAX5/m+cFqkqeukD5NlDuhxVlt3yxj
cqN32TKJj1Dc5mwyBsZYKt+mFmQ07n21jv8PLmaP9CA0213tS9udqxBttbI6VWBa
H7MXKRbROuY4nfiuDZcqdJsxL8vGeEiznuFI6FYJn93auh2n7re2j9w41ZJTJGLQ
I7ScTaHS0iIivUBcBTxuJNZ09c3qgreRHb0fP1pnmJOX5Ll4CyqKgaAoXlCW0O7w
8yBuoAIjgyNfFm0v8Pl2wwLsgD8xY1u9PwXt/3DhxZBqvMuKirI3JdnF68VFPLxt
LAb3g5cFuD4IxsZoy6YLmd9Jar37yUnq8lV32pxE06DawZMEkw==
-----END CERTIFICATE-----
