Certificate:
    Data:
        Version: 1 (0x0)
        Serial Number:
            2f:70:2a:fe:2f:83:e6:51:c4:63:ac:9a:7b:68:c8:33:ec:fb:27:ab
        Signature Algorithm: NULL
        Issuer: CN = pg-client
        Validity
            Not Before: Nov 30 03:09:48 2020 GMT
            Not After : Dec 30 03:09:48 2020 GMT
        Subject: CN = pg-client
        Subject Public Key Info:
            Public Key Algorithm: rsaEncryption
                RSA Public-Key: (2048 bit)
                Modulus:
                    00:b4:2d:a0:6c:b6:94:70:a5:d2:dd:1b:b2:03:ee:
                    0c:67:e5:38:a4:a6:12:23:6a:7d:27:87:44:82:09:
                    ef:47:f7:83:ec:4c:54:3e:39:83:62:b2:7a:00:97:
                    fb:b2:4f:9b:86:cd:70:15:f6:9b:46:de:9b:d4:2c:
                    df:fc:b1:fe:81:7c:eb:b5:10:52:3c:5a:e6:ce:4d:
                    c9:9b:e0:9b:92:00:05:e5:f4:77:98:8e:bf:44:2b:
                    ee:a8:82:b4:f4:49:e2:31:a1:7f:f1:12:85:4f:ba:
                    86:b2:8c:cf:94:eb:57:32:4b:21:3d:35:b9:6f:af:
                    9c:17:3d:4a:51:9f:46:37:a7:4a:11:0d:f6:b4:26:
                    f8:b5:0f:61:f5:63:ec:2a:bb:85:ad:0f:b1:dc:e2:
                    d7:e0:f4:ca:6b:31:37:97:e5:e6:3e:61:3f:2e:34:
                    68:4e:9b:30:21:67:6a:db:0c:19:60:21:4b:37:4b:
                    4f:0e:c0:8d:f9:47:69:f0:63:e3:f7:c9:e9:50:90:
                    1a:26:a7:ec:07:a8:1f:33:29:9f:3f:84:59:71:fd:
                    0a:fc:e5:64:5e:db:27:e0:bc:d9:2d:c9:31:b7:ab:
                    d3:dc:7f:a0:f1:ff:64:ce:be:46:71:59:fa:d8:85:
                    08:5d:ed:a2:27:1d:96:26:b6:be:ed:f6:bb:7c:b3:
                    6a:1d
                Exponent: 65537 (0x10001)
    Signature Algorithm: NULL
-----BEGIN CERTIFICATE-----
MIICuzCCAaMCFDNYsqCteX5fPe8kKiECu9BRkuKaMA0GCSqGSIb3DQEBCwUAMCAx
HjAcBgNVBAMMFWNlcnRpZmljYXRlLWF1dGhvcml0eTAeFw0yMDExMzAwMzA5NDha
Fw0yMDEyMzAwMzA5NDhaMBQxEjAQBgNVBAMMCXBnLWNsaWVudDCCASIwDQYJKoZI
hvcNAQEBBQADggEPADCCAQoCggEBALQtoGy2lHCl0t0bsgPuDGflOKSmEiNqfSeH
RIIJ70f3g+xMVD45g2KyegCX+7JPm4bNcBX2m0bem9Qs3/yx/oF867UQUjxa5s5N
yZvgm5IABeX0d5iOv0Qr7qiCtPRJ4jGhf/EShU+6hrKMz5TrVzJLIT01uW+vnBc9
SlGfRjenShEN9rQm+LUPYfVj7Cq7ha0Psdzi1+D0ymsxN5fl5j5hPy40aE6bMCFn
atsMGWAhSzdLTw7AjflHafBj4/fJ6VCQGian7AeoHzMpnz+EWXH9CvzlZF7bJ+C8
2S3JMber09x/oPH/ZM6+RnFZ+tiFCF3toicdlia2vu32u3yzah0CAwEAATANBgkq
hkiG9w0BAQsFAAOCAQEAIOyQ2+w7WlbCz6AsjOc2nlvr2uvsWGzRlXEpLD8oquya
QecBMyaYE/XUDpv24PC3+i0kryyB7/D7yaPfwXgYlgYPjG4r8kq/ND//bJMI1QNh
x//NgWM61yQUK+xtTEncKx02CjVgbHOELN/0ZrsPYHcWOnbtMC9Z9xaoyBZ2JH9E
vGS1bT0RQudMYDaEz344+FhzcgG4kcB3Px0o4Iwq8u3zBnY8JBFIan3fDWVov1I8
g7nHoGreZA6gf9lvwpup1/sN0Md/I2hDEAVNgh4mUuJzhpHpDucVeC/5Cmv+c2Wk
IBVJ9yl9WXwVVXpT+bI3X5atB7oMdyTXB1Z/q3oBJw==
-----END CERTIFICATE-----
