Certificate:
    Data:
        Version: 1 (0x0)
        Serial Number:
            67:c5:9c:85:13:57:2e:65:f6:58:55:52:5b:d0:07:b4:ae:1b:0b:2a
        Signature Algorithm: NULL
        Issuer: CN = pg-client
        Validity
            Not Before: Jan  6 03:09:32 2021 GMT
            Not After : Jan  6 03:09:32 2022 GMT
        Subject: CN = pg-client
        Subject Public Key Info:
            Public Key Algorithm: rsaEncryption
                RSA Public-Key: (2048 bit)
                Modulus:
                    00:f4:39:30:a7:52:f4:bc:85:db:b4:d4:c2:2e:2a:
                    fc:7a:03:26:21:19:40:3a:b0:62:b7:24:10:d0:45:
                    e1:5f:ac:13:f2:b6:ea:54:54:d0:89:55:67:cb:f4:
                    79:2b:f1:e2:78:24:c9:77:63:4c:87:60:77:2e:6c:
                    65:6e:f4:16:c8:e6:79:b6:f2:1c:9a:b8:26:2d:5c:
                    23:85:bc:0a:44:60:77:dd:16:1f:ec:2a:45:a4:44:
                    62:28:02:9b:a4:8d:71:fd:cc:1b:66:00:66:74:f5:
                    fd:82:87:b0:83:a8:38:ae:6d:c4:dc:03:b8:a5:51:
                    3e:e4:86:ba:52:32:ef:e4:d4:1e:4b:c3:0d:69:29:
                    21:25:99:da:90:b5:cd:e0:fc:7f:32:05:a8:3f:9a:
                    f1:48:49:08:4d:0d:ef:6b:de:af:29:f0:29:b9:e7:
                    3d:e2:ac:a5:19:ec:35:4b:99:cf:6e:3a:5b:65:43:
                    88:ec:e2:36:55:3a:1a:70:34:d2:75:2f:2b:96:5f:
                    47:f1:1d:b5:06:0a:31:5f:96:98:42:41:f1:a5:ec:
                    71:7d:2c:0b:e9:3b:22:98:ff:98:ef:d8:7c:b5:3f:
                    5c:7a:99:76:ac:a1:92:bf:c7:c7:c5:9c:9b:81:1c:
                    ae:4c:e3:a1:0d:ad:48:fd:d7:e5:a3:a8:da:9e:eb:
                    10:a3
                Exponent: 65537 (0x10001)
    Signature Algorithm: NULL
-----BEGIN CERTIFICATE-----
MIICuzCCAaMCFDNYsqCteX5fPe8kKiECu9BRkuKcMA0GCSqGSIb3DQEBCwUAMCAx
HjAcBgNVBAMMFWNlcnRpZmljYXRlLWF1dGhvcml0eTAeFw0yMTAxMDYwMzA5MzJa
Fw0yMjAxMDYwMzA5MzJaMBQxEjAQBgNVBAMMCXBnLWNsaWVudDCCASIwDQYJKoZI
hvcNAQEBBQADggEPADCCAQoCggEBAPQ5MKdS9LyF27TUwi4q/HoDJiEZQDqwYrck
ENBF4V+sE/K26lRU0IlVZ8v0eSvx4ngkyXdjTIdgdy5sZW70FsjmebbyHJq4Ji1c
I4W8CkRgd90WH+wqRaREYigCm6SNcf3MG2YAZnT1/YKHsIOoOK5txNwDuKVRPuSG
ulIy7+TUHkvDDWkpISWZ2pC1zeD8fzIFqD+a8UhJCE0N72verynwKbnnPeKspRns
NUuZz246W2VDiOziNlU6GnA00nUvK5ZfR/EdtQYKMV+WmEJB8aXscX0sC+k7Ipj/
mO/YfLU/XHqZdqyhkr/Hx8Wcm4EcrkzjoQ2tSP3X5aOo2p7rEKMCAwEAATANBgkq
hkiG9w0BAQsFAAOCAQEAZULe358OWtV8NBV48ZUiq099B3AaO4mPLv4Ey4DUpT0s
+harwcmDVHZYZQ0mJgC5PZxI9WRMY+Q00OdNNlkfkesYRpWJhqZ/oYU3GrInUl6F
9uWxAsWW3X8jAHUYMxI+N/62ERP41rVQrwiJirevPs0fA8KnVDutVL8cRUVZ0NrQ
TkNto7G10N0+rmVodUrLfZbznFS37BZkMuyomOoX8uzOyiulG46HV8tmdYqLJwi2
zulIPYLEUL5zh8/WDEqQMiTbk6b2fu4WtE1VyRNd6c3egU2sI+4uAHhAekg3IeR2
DNehFFU5fPRU5sMRz6jLDDz3v/LNiWN/IOlwoimLvA==
-----END CERTIFICATE-----
